target datalayout = "e-m:e-p270:32:32-p271:32:32-p272:64:64-i64:64-i128:128-f80:128-n8:16:32:64-S128"
target triple = "x86_64-pc-linux-gnu"

%struct.nameData = type { [64 x i8] }
%struct.HeapTupleData = type { i32, %struct.ItemPointerData, i32, ptr }
%struct.ItemPointerData = type { %struct.BlockIdData, i16 }
%struct.BlockIdData = type { i16, i16 }
%struct.HeapTupleHeaderData = type { %union.anon.1, %struct.ItemPointerData, i16, i16, i8, [0 x i8] }
%union.anon.1 = type { %struct.HeapTupleFields }
%struct.HeapTupleFields = type { i32, i32, %union.anon.2 }
%union.anon.2 = type { i32 }
%struct.FormData_pg_class = type { i32, %struct.nameData, i32, i32, i32, i32, i32, i32, i32, i32, float, i32, i32, i8, i8, i8, i8, i16, i16, i8, i8, i8, i8, i8, i8, i8, i8, i32, i32, i32 }
%struct.FormData_pg_attribute = type { i32, %struct.nameData, i32, i16, i16, i32, i16, i8, i8, i8, i8, i8, i8, i8, i8, i8, i8, i8, i16, i32 }

@.str.1 = private unnamed_addr constant [9 x i8] c"aclchk.c\00", align 1
@.str.100 = private unnamed_addr constant [36 x i8] c"relation with OID %u does not exist\00", align 1
@.str.171 = private unnamed_addr constant [52 x i8] c"attribute %d of relation with OID %u does not exist\00", align 1
@__func__.pg_attribute_aclmask_ext = private unnamed_addr constant [25 x i8] c"pg_attribute_aclmask_ext\00", align 1

; Function Attrs: inlinehint nounwind uwtable
define internal ptr @DatumGetPointer(i64 noundef %0) #7 {
  %2 = alloca i64, align 8
  store i64 %0, ptr %2, align 8
  %3 = load i64, ptr %2, align 8
  %4 = inttoptr i64 %3 to ptr
  ret ptr %4
}

; Function Attrs: inlinehint nounwind uwtable
define internal ptr @GETSTRUCT(ptr noundef %0) #7 {
  %2 = alloca ptr, align 8
  store ptr %0, ptr %2, align 8
  %3 = load ptr, ptr %2, align 8
  %4 = getelementptr inbounds nuw %struct.HeapTupleData, ptr %3, i32 0, i32 3
  %5 = load ptr, ptr %4, align 8
  %6 = load ptr, ptr %2, align 8
  %7 = getelementptr inbounds nuw %struct.HeapTupleData, ptr %6, i32 0, i32 3
  %8 = load ptr, ptr %7, align 8
  %9 = getelementptr inbounds nuw %struct.HeapTupleHeaderData, ptr %8, i32 0, i32 4
  %10 = load i8, ptr %9, align 2
  %11 = zext i8 %10 to i32
  %12 = sext i32 %11 to i64
  %13 = getelementptr inbounds i8, ptr %5, i64 %12
  ret ptr %13
}

; Function Attrs: inlinehint nounwind uwtable
define internal i64 @Int16GetDatum(i16 noundef signext %0) #7 {
  %2 = alloca i16, align 2
  store i16 %0, ptr %2, align 2
  %3 = load i16, ptr %2, align 2
  %4 = sext i16 %3 to i64
  ret i64 %4
}

; Function Attrs: inlinehint nounwind uwtable
define internal i64 @ObjectIdGetDatum(i32 noundef %0) #7 {
  %2 = alloca i32, align 4
  store i32 %0, ptr %2, align 4
  %3 = load i32, ptr %2, align 4
  %4 = zext i32 %3 to i64
  ret i64 %4
}

; Function Attrs: nounwind uwtable
define internal i64 @pg_attribute_aclmask_ext(i32 noundef %0, i16 noundef signext %1, i32 noundef %2, i64 noundef %3, i32 noundef %4, ptr noundef %5) #0 {
  %7 = alloca i64, align 8
  %8 = alloca i32, align 4
  %9 = alloca i16, align 2
  %10 = alloca i32, align 4
  %11 = alloca i64, align 8
  %12 = alloca i32, align 4
  %13 = alloca ptr, align 8
  %14 = alloca i64, align 8
  %15 = alloca ptr, align 8
  %16 = alloca ptr, align 8
  %17 = alloca ptr, align 8
  %18 = alloca ptr, align 8
  %19 = alloca i64, align 8
  %20 = alloca i8, align 1
  %21 = alloca ptr, align 8
  %22 = alloca i32, align 4
  %23 = alloca i32, align 4
  store i32 %0, ptr %8, align 4
  store i16 %1, ptr %9, align 2
  store i32 %2, ptr %10, align 4
  store i64 %3, ptr %11, align 8
  store i32 %4, ptr %12, align 4
  store ptr %5, ptr %13, align 8
  call void @llvm.lifetime.start.p0(i64 8, ptr %14) #9
  call void @llvm.lifetime.start.p0(i64 8, ptr %15) #9
  call void @llvm.lifetime.start.p0(i64 8, ptr %16) #9
  call void @llvm.lifetime.start.p0(i64 8, ptr %17) #9
  call void @llvm.lifetime.start.p0(i64 8, ptr %18) #9
  call void @llvm.lifetime.start.p0(i64 8, ptr %19) #9
  call void @llvm.lifetime.start.p0(i64 1, ptr %20) #9
  call void @llvm.lifetime.start.p0(i64 8, ptr %21) #9
  call void @llvm.lifetime.start.p0(i64 4, ptr %22) #9
  %24 = load i32, ptr %8, align 4
  %25 = call i64 @ObjectIdGetDatum(i32 noundef %24)
  %26 = load i16, ptr %9, align 2
  %27 = call i64 @Int16GetDatum(i16 noundef signext %26)
  %28 = call ptr @SearchSysCache2(i32 noundef 7, i64 noundef %25, i64 noundef %27)
  store ptr %28, ptr %16, align 8
  %29 = load ptr, ptr %16, align 8
  %30 = icmp ne ptr %29, null
  br i1 %30, label %52, label %31

31:                                               ; preds = %6
  %32 = load ptr, ptr %13, align 8
  %33 = icmp ne ptr %32, null
  br i1 %33, label %34, label %36

34:                                               ; preds = %31
  %35 = load ptr, ptr %13, align 8
  store i8 1, ptr %35, align 1
  store i64 0, ptr %7, align 8
  store i32 1, ptr %23, align 4
  br label %142

36:                                               ; preds = %31
  br label %37

37:                                               ; preds = %36
  br i1 true, label %38, label %40

38:                                               ; preds = %37
  %39 = call zeroext i1 @errstart_cold(i32 noundef 21, ptr noundef null) #10
  br i1 %39, label %42, label %48

40:                                               ; preds = %37
  %41 = call zeroext i1 @errstart(i32 noundef 21, ptr noundef null)
  br i1 %41, label %42, label %48

42:                                               ; preds = %40, %38
  %43 = call i32 @errcode(i32 noundef 50360452)
  %44 = load i16, ptr %9, align 2
  %45 = sext i16 %44 to i32
  %46 = load i32, ptr %8, align 4
  %47 = call i32 (ptr, ...) @errmsg(ptr noundef @.str.171, i32 noundef %45, i32 noundef %46)
  call void @errfinish(ptr noundef @.str.1, i32 noundef 3157, ptr noundef @__func__.pg_attribute_aclmask_ext)
  br label %48

48:                                               ; preds = %42, %40, %38
  unreachable

49:                                               ; No predecessors!
  br label %50

50:                                               ; preds = %49
  br label %51

51:                                               ; preds = %50
  br label %52

52:                                               ; preds = %51, %6
  %53 = load ptr, ptr %16, align 8
  %54 = call ptr @GETSTRUCT(ptr noundef %53)
  store ptr %54, ptr %18, align 8
  %55 = load ptr, ptr %18, align 8
  %56 = getelementptr inbounds nuw %struct.FormData_pg_attribute, ptr %55, i32 0, i32 16
  %57 = load i8, ptr %56, align 1, !range !4, !noundef !5
  %58 = trunc i8 %57 to i1
  br i1 %58, label %59, label %81

59:                                               ; preds = %52
  %60 = load ptr, ptr %13, align 8
  %61 = icmp ne ptr %60, null
  br i1 %61, label %62, label %65

62:                                               ; preds = %59
  %63 = load ptr, ptr %13, align 8
  store i8 1, ptr %63, align 1
  %64 = load ptr, ptr %16, align 8
  call void @ReleaseSysCache(ptr noundef %64)
  store i64 0, ptr %7, align 8
  store i32 1, ptr %23, align 4
  br label %142

65:                                               ; preds = %59
  br label %66

66:                                               ; preds = %65
  br i1 true, label %67, label %69

67:                                               ; preds = %66
  %68 = call zeroext i1 @errstart_cold(i32 noundef 21, ptr noundef null) #10
  br i1 %68, label %71, label %77

69:                                               ; preds = %66
  %70 = call zeroext i1 @errstart(i32 noundef 21, ptr noundef null)
  br i1 %70, label %71, label %77

71:                                               ; preds = %69, %67
  %72 = call i32 @errcode(i32 noundef 50360452)
  %73 = load i16, ptr %9, align 2
  %74 = sext i16 %73 to i32
  %75 = load i32, ptr %8, align 4
  %76 = call i32 (ptr, ...) @errmsg(ptr noundef @.str.171, i32 noundef %74, i32 noundef %75)
  call void @errfinish(ptr noundef @.str.1, i32 noundef 3176, ptr noundef @__func__.pg_attribute_aclmask_ext)
  br label %77

77:                                               ; preds = %71, %69, %67
  unreachable

78:                                               ; No predecessors!
  br label %79

79:                                               ; preds = %78
  br label %80

80:                                               ; preds = %79
  br label %81

81:                                               ; preds = %80, %52
  %82 = load ptr, ptr %16, align 8
  %83 = call i64 @SysCacheGetAttr(i32 noundef 7, ptr noundef %82, i16 noundef signext 22, ptr noundef %20)
  store i64 %83, ptr %19, align 8
  %84 = load i8, ptr %20, align 1, !range !4, !noundef !5
  %85 = trunc i8 %84 to i1
  br i1 %85, label %86, label %88

86:                                               ; preds = %81
  %87 = load ptr, ptr %16, align 8
  call void @ReleaseSysCache(ptr noundef %87)
  store i64 0, ptr %7, align 8
  store i32 1, ptr %23, align 4
  br label %142

88:                                               ; preds = %81
  %89 = load i32, ptr %8, align 4
  %90 = call i64 @ObjectIdGetDatum(i32 noundef %89)
  %91 = call ptr @SearchSysCache1(i32 noundef 57, i64 noundef %90)
  store ptr %91, ptr %15, align 8
  %92 = load ptr, ptr %15, align 8
  %93 = icmp ne ptr %92, null
  br i1 %93, label %114, label %94

94:                                               ; preds = %88
  %95 = load ptr, ptr %16, align 8
  call void @ReleaseSysCache(ptr noundef %95)
  %96 = load ptr, ptr %13, align 8
  %97 = icmp ne ptr %96, null
  br i1 %97, label %98, label %100

98:                                               ; preds = %94
  %99 = load ptr, ptr %13, align 8
  store i8 1, ptr %99, align 1
  store i64 0, ptr %7, align 8
  store i32 1, ptr %23, align 4
  br label %142

100:                                              ; preds = %94
  br label %101

101:                                              ; preds = %100
  br i1 true, label %102, label %104

102:                                              ; preds = %101
  %103 = call zeroext i1 @errstart_cold(i32 noundef 21, ptr noundef null) #10
  br i1 %103, label %106, label %110

104:                                              ; preds = %101
  %105 = call zeroext i1 @errstart(i32 noundef 21, ptr noundef null)
  br i1 %105, label %106, label %110

106:                                              ; preds = %104, %102
  %107 = call i32 @errcode(i32 noundef 16908420)
  %108 = load i32, ptr %8, align 4
  %109 = call i32 (ptr, ...) @errmsg(ptr noundef @.str.100, i32 noundef %108)
  call void @errfinish(ptr noundef @.str.1, i32 noundef 3214, ptr noundef @__func__.pg_attribute_aclmask_ext)
  br label %110

110:                                              ; preds = %106, %104, %102
  unreachable

111:                                              ; No predecessors!
  br label %112

112:                                              ; preds = %111
  br label %113

113:                                              ; preds = %112
  br label %114

114:                                              ; preds = %113, %88
  %115 = load ptr, ptr %15, align 8
  %116 = call ptr @GETSTRUCT(ptr noundef %115)
  store ptr %116, ptr %17, align 8
  %117 = load ptr, ptr %17, align 8
  %118 = getelementptr inbounds nuw %struct.FormData_pg_class, ptr %117, i32 0, i32 5
  %119 = load i32, ptr %118, align 4
  store i32 %119, ptr %22, align 4
  %120 = load ptr, ptr %15, align 8
  call void @ReleaseSysCache(ptr noundef %120)
  %121 = load i64, ptr %19, align 8
  %122 = call ptr @DatumGetPointer(i64 noundef %121)
  %123 = call ptr @pg_detoast_datum(ptr noundef %122)
  store ptr %123, ptr %21, align 8
  %124 = load ptr, ptr %21, align 8
  %125 = load i32, ptr %10, align 4
  %126 = load i32, ptr %22, align 4
  %127 = load i64, ptr %11, align 8
  %128 = load i32, ptr %12, align 4
  %129 = call i64 @aclmask(ptr noundef %124, i32 noundef %125, i32 noundef %126, i64 noundef %127, i32 noundef %128)
  store i64 %129, ptr %14, align 8
  %130 = load ptr, ptr %21, align 8
  %131 = icmp ne ptr %130, null
  br i1 %131, label %132, label %139

132:                                              ; preds = %114
  %133 = load ptr, ptr %21, align 8
  %134 = load i64, ptr %19, align 8
  %135 = call ptr @DatumGetPointer(i64 noundef %134)
  %136 = icmp ne ptr %133, %135
  br i1 %136, label %137, label %139

137:                                              ; preds = %132
  %138 = load ptr, ptr %21, align 8
  call void @pfree(ptr noundef %138)
  br label %139

139:                                              ; preds = %137, %132, %114
  %140 = load ptr, ptr %16, align 8
  call void @ReleaseSysCache(ptr noundef %140)
  %141 = load i64, ptr %14, align 8
  store i64 %141, ptr %7, align 8
  store i32 1, ptr %23, align 4
  br label %142

142:                                              ; preds = %139, %98, %86, %62, %34
  call void @llvm.lifetime.end.p0(i64 4, ptr %22) #9
  call void @llvm.lifetime.end.p0(i64 8, ptr %21) #9
  call void @llvm.lifetime.end.p0(i64 1, ptr %20) #9
  call void @llvm.lifetime.end.p0(i64 8, ptr %19) #9
  call void @llvm.lifetime.end.p0(i64 8, ptr %18) #9
  call void @llvm.lifetime.end.p0(i64 8, ptr %17) #9
  call void @llvm.lifetime.end.p0(i64 8, ptr %16) #9
  call void @llvm.lifetime.end.p0(i64 8, ptr %15) #9
  call void @llvm.lifetime.end.p0(i64 8, ptr %14) #9
  %143 = load i64, ptr %7, align 8
  ret i64 %143
}