; Function Attrs: nounwind uwtable
define internal fastcc i64 @pg_attribute_aclmask_ext(i32 noundef %0, i16 noundef signext %1, i32 noundef %2, i64 noundef %3, ptr noundef writeonly captures(address_is_null) %4) unnamed_addr #0 {
  %6 = alloca i8, align 1
  call void @llvm.lifetime.start.p0(i64 1, ptr nonnull %6) #9
  %7 = zext i32 %0 to i64
  %8 = sext i16 %1 to i64
  %9 = tail call ptr @SearchSysCache2(i32 noundef 7, i64 noundef %7, i64 noundef %8) #9
  %.not = icmp eq ptr %9, null
  br i1 %.not, label %10, label %17

10:                                               ; preds = %5
  %.not41 = icmp eq ptr %4, null
  br i1 %.not41, label %12, label %11

11:                                               ; preds = %10
  store i8 1, ptr %4, align 1
  br label %59

12:                                               ; preds = %10
  %13 = tail call zeroext i1 @errstart_cold(i32 noundef 21, ptr noundef null) #10
  tail call void @llvm.assume(i1 %13)
  %14 = tail call i32 @errcode(i32 noundef 50360452) #9
  %15 = sext i16 %1 to i32
  %16 = tail call i32 (ptr, ...) @errmsg(ptr noundef nonnull @.str.171, i32 noundef %15, i32 noundef %0) #9
  tail call void @errfinish(ptr noundef nonnull @.str.1, i32 noundef 3157, ptr noundef nonnull @__func__.pg_attribute_aclmask_ext) #9
  unreachable

17:                                               ; preds = %5
  %18 = getelementptr i8, ptr %9, i64 16
  %.val47 = load ptr, ptr %18, align 8
  %19 = getelementptr inbounds nuw i8, ptr %.val47, i64 22
  %20 = load i8, ptr %19, align 2
  %21 = zext i8 %20 to i64
  %22 = getelementptr inbounds nuw i8, ptr %.val47, i64 %21
  %23 = getelementptr inbounds nuw i8, ptr %22, i64 91
  %24 = load i8, ptr %23, align 1, !range !4, !noundef !5
  %25 = trunc nuw i8 %24 to i1
  br i1 %25, label %26, label %33

26:                                               ; preds = %17
  %.not46 = icmp eq ptr %4, null
  br i1 %.not46, label %28, label %27

27:                                               ; preds = %26
  store i8 1, ptr %4, align 1
  tail call void @ReleaseSysCache(ptr noundef nonnull %9) #9
  br label %59

28:                                               ; preds = %26
  %29 = tail call zeroext i1 @errstart_cold(i32 noundef 21, ptr noundef null) #10
  tail call void @llvm.assume(i1 %29)
  %30 = tail call i32 @errcode(i32 noundef 50360452) #9
  %31 = sext i16 %1 to i32
  %32 = tail call i32 (ptr, ...) @errmsg(ptr noundef nonnull @.str.171, i32 noundef %31, i32 noundef %0) #9
  tail call void @errfinish(ptr noundef nonnull @.str.1, i32 noundef 3176, ptr noundef nonnull @__func__.pg_attribute_aclmask_ext) #9
  unreachable

33:                                               ; preds = %17
  %34 = call i64 @SysCacheGetAttr(i32 noundef 7, ptr noundef nonnull %9, i16 noundef signext 22, ptr noundef nonnull %6) #9
  %35 = load i8, ptr %6, align 1, !range !4, !noundef !5
  %36 = trunc nuw i8 %35 to i1
  br i1 %36, label %37, label %38

37:                                               ; preds = %33
  call void @ReleaseSysCache(ptr noundef nonnull %9) #9
  br label %59

38:                                               ; preds = %33
  %39 = call ptr @SearchSysCache1(i32 noundef 57, i64 noundef %7) #9
  %.not42 = icmp eq ptr %39, null
  br i1 %.not42, label %40, label %46

40:                                               ; preds = %38
  call void @ReleaseSysCache(ptr noundef nonnull %9) #9
  %.not43 = icmp eq ptr %4, null
  br i1 %.not43, label %42, label %41

41:                                               ; preds = %40
  store i8 1, ptr %4, align 1
  br label %59

42:                                               ; preds = %40
  %43 = call zeroext i1 @errstart_cold(i32 noundef 21, ptr noundef null) #10
  call void @llvm.assume(i1 %43)
  %44 = call i32 @errcode(i32 noundef 16908420) #9
  %45 = call i32 (ptr, ...) @errmsg(ptr noundef nonnull @.str.100, i32 noundef %0) #9
  call void @errfinish(ptr noundef nonnull @.str.1, i32 noundef 3214, ptr noundef nonnull @__func__.pg_attribute_aclmask_ext) #9
  unreachable

46:                                               ; preds = %38
  %47 = getelementptr i8, ptr %39, i64 16
  %.val = load ptr, ptr %47, align 8
  %48 = getelementptr inbounds nuw i8, ptr %.val, i64 22
  %49 = load i8, ptr %48, align 2
  %50 = zext i8 %49 to i64
  %51 = getelementptr inbounds nuw i8, ptr %.val, i64 %50
  %52 = getelementptr inbounds nuw i8, ptr %51, i64 80
  %53 = load i32, ptr %52, align 4
  call void @ReleaseSysCache(ptr noundef nonnull %39) #9
  %54 = inttoptr i64 %34 to ptr
  %55 = call ptr @pg_detoast_datum(ptr noundef %54) #9
  %56 = call i64 @aclmask(ptr noundef %55, i32 noundef %2, i32 noundef %53, i64 noundef %3, i32 noundef 1) #9
  %.not44 = icmp eq ptr %55, null
  %.not45 = icmp eq ptr %55, %54
  %or.cond = or i1 %.not44, %.not45
  br i1 %or.cond, label %58, label %57

57:                                               ; preds = %46
  call void @pfree(ptr noundef nonnull %55) #9
  br label %58

58:                                               ; preds = %57, %46
  call void @ReleaseSysCache(ptr noundef nonnull %9) #9
  br label %59

59:                                               ; preds = %58, %41, %37, %27, %11
  %.0 = phi i64 [ 0, %27 ], [ 0, %37 ], [ %56, %58 ], [ 0, %41 ], [ 0, %11 ]
  call void @llvm.lifetime.end.p0(i64 1, ptr nonnull %6) #9
  ret i64 %.0
}